Archive member included because of file (symbol)

../usbstack.a(usbhw_lpc.o)    main_msc.o (USBHwConnect)
../usbstack.a(usbcontrol.o)   main_msc.o (USBRegisterRequestHandler)
../usbstack.a(usbstdreq.o)    main_msc.o (USBRegisterDescriptors)
../usbstack.a(usbinit.o)      main_msc.o (USBInit)
/opt/cross/lib/gcc/arm-elf/4.2.1/libgcc.a(_udivsi3.o)
                              printf.o (__udivsi3)
/opt/cross/lib/gcc/arm-elf/4.2.1/libgcc.a(_divsi3.o)
                              lpc2000_spi.o (__divsi3)
/opt/cross/lib/gcc/arm-elf/4.2.1/libgcc.a(_umodsi3.o)
                              printf.o (__umodsi3)
/opt/cross/lib/gcc/arm-elf/4.2.1/libgcc.a(_dvmd_tls.o)
                              /opt/cross/lib/gcc/arm-elf/4.2.1/libgcc.a(_udivsi3.o) (__div0)
/opt/cross/lib/gcc/arm-elf/4.2.1/../../../../arm-elf/lib/libc.a(lib_a-memcpy.o)
                              msc_scsi.o (memcpy)

Memory Configuration

Name             Origin             Length             Attributes
flash            0x0000000000000000 0x0000000000080000
ram_isp_low      0x0000000040000120 0x00000000000000df a
ram              0x0000000040000200 0x0000000000007f01
ram_isp_high     0x0000000040007fe0 0x0000000000000020 a
ram_usb_dma      0x000000007fd00000 0x0000000000002000
*default*        0x0000000000000000 0xffffffffffffffff

Linker script and memory map

LOAD crt.o
LOAD halsys.o
LOAD printf.o
LOAD console.o
LOAD main_msc.o
LOAD msc_bot.o
LOAD msc_scsi.o
LOAD blockdev_sd.o
LOAD sdcard.o
LOAD lpc2000_spi.o
LOAD ../usbstack.a
START GROUP
LOAD /opt/cross/lib/gcc/arm-elf/4.2.1/libgcc.a
LOAD /opt/cross/lib/gcc/arm-elf/4.2.1/../../../../arm-elf/lib/libc.a
END GROUP
                0x0000000040007edc                _stack_end = 0x40007edc
                0x0000000000000000                . = 0x0

startup
 *(.startup)

.text           0x0000000000000000     0x3894
 *(.text)
 .text          0x0000000000000000       0xd8 crt.o
                0x0000000000000000                _startup
                0x0000000000000040                Reset_Handler
 .text          0x00000000000000d8      0x150 halsys.o
                0x00000000000000e4                UNDEF_Routine
                0x00000000000000e0                SWI_Routine
                0x0000000000000150                HalSysGetPCLK
                0x00000000000000dc                FIQ_Routine
                0x0000000000000144                HalSysGetCCLK
                0x00000000000000e8                HalSysPinSelect
                0x00000000000000d8                IRQ_Routine
                0x00000000000001b8                HalSysInit
                0x000000000000015c                HalPinSelect
 .text          0x0000000000000228      0x45c printf.o
                0x0000000000000650                printf
                0x0000000000000618                sprintf
 .text          0x0000000000000684       0xd8 console.o
                0x00000000000006d0                putchar
                0x0000000000000684                ConsoleInit
                0x0000000000000728                puts
                0x000000000000070c                getchar
 .text          0x000000000000075c      0x138 main_msc.o
                0x000000000000075c                main
 .text          0x0000000000000894      0x570 msc_bot.o
                0x00000000000009f4                MSCBotBulkIn
                0x0000000000000dd8                MSCBotReset
                0x0000000000000abc                MSCBotBulkOut
 .text          0x0000000000000e04      0x4e8 msc_scsi.o
                0x0000000000000e18                SCSIHandleData
                0x0000000000001048                SCSIHandleCmd
                0x0000000000000e04                SCSIReset
 .text          0x00000000000012ec      0x178 blockdev_sd.o
                0x0000000000001440                BlockDevRead
                0x0000000000001460                BlockDevInit
                0x0000000000001354                BlockDevGetSize
                0x0000000000001450                BlockDevWrite
 .text          0x0000000000001464      0x5f4 sdcard.o
                0x0000000000001894                SDInit
                0x0000000000001678                SDReadCID
                0x00000000000016dc                SDReadCSD
                0x00000000000019e4                SDReadBlock
                0x0000000000001630                SDReadOCR
                0x0000000000001740                SDWriteBlock
 .text          0x0000000000001a58      0x198 lpc2000_spi.o
                0x0000000000001b8c                SPISetSpeed
                0x0000000000001b14                SPIInit
                0x0000000000001acc                SPITick
                0x0000000000001a58                SPITransfer
 .text          0x0000000000001bf0      0x870 ../usbstack.a(usbhw_lpc.o)
                0x0000000000001e24                USBHwEPRead
                0x0000000000001f74                USBHwISR
                0x0000000000002284                USBDisableDMAForEndpoint
                0x0000000000001d98                USBHwEPWrite
                0x00000000000022ac                USBEnableDMAForEndpoint
                0x0000000000001ec0                USBHwISOCEPRead
                0x0000000000001cb4                USBHwEPConfig
                0x0000000000001d0c                USBHwSetAddress
                0x0000000000001d1c                USBHwConnect
                0x0000000000001d78                USBHwEPStall
                0x0000000000002328                USBSetHeadDDForDMA
                0x0000000000002340                USBInitializeUSBDMA
                0x0000000000002394                USBHwRegisterDevIntHandler
                0x00000000000023c0                USBHwRegisterEPIntHandler
                0x000000000000220c                USBSetupDMADescriptor
                0x0000000000001f64                USBHwConfigDevice
                0x0000000000001d4c                USBHwNakIntEnable
                0x00000000000020d4                USBHwInit
                0x0000000000002368                USBHwRegisterFrameHandler
                0x0000000000001d58                USBHwEPGetStatus
                0x00000000000022d4                USBInitializeISOCFrameArray
 .text          0x0000000000002460      0x350 ../usbstack.a(usbcontrol.o)
                0x00000000000025e0                USBHandleControlTransfer
                0x0000000000002460                USBRegisterRequestHandler
 .text          0x00000000000027b0      0x428 ../usbstack.a(usbstdreq.o)
                0x00000000000027d0                USBGetDescriptor
                0x00000000000027c0                USBRegisterCustomReqHandler
                0x00000000000027b0                USBRegisterDescriptors
                0x00000000000028a0                USBHandleStandardRequest
 .text          0x0000000000002bd8       0x80 ../usbstack.a(usbinit.o)
                0x0000000000002bd8                USBInit
 .text          0x0000000000002c58      0x110 /opt/cross/lib/gcc/arm-elf/4.2.1/libgcc.a(_udivsi3.o)
                0x0000000000002c58                __udivsi3
                0x0000000000002c58                __aeabi_uidiv
                0x0000000000002d50                __aeabi_uidivmod
 .text          0x0000000000002d68      0x140 /opt/cross/lib/gcc/arm-elf/4.2.1/libgcc.a(_divsi3.o)
                0x0000000000002d68                __aeabi_idiv
                0x0000000000002d68                __divsi3
                0x0000000000002e90                __aeabi_idivmod
 .text          0x0000000000002ea8       0xcc /opt/cross/lib/gcc/arm-elf/4.2.1/libgcc.a(_umodsi3.o)
                0x0000000000002ea8                __umodsi3
 .text          0x0000000000002f74        0x4 /opt/cross/lib/gcc/arm-elf/4.2.1/libgcc.a(_dvmd_tls.o)
                0x0000000000002f74                __aeabi_ldiv0
                0x0000000000002f74                __div0
                0x0000000000002f74                __aeabi_idiv0
 .text          0x0000000000002f78       0xa8 /opt/cross/lib/gcc/arm-elf/4.2.1/../../../../arm-elf/lib/libc.a(lib_a-memcpy.o)
                0x0000000000002f78                memcpy
 *(.rodata)
 .rodata        0x0000000000003020       0x71 main_msc.o
 *fill*         0x0000000000003091        0x3 00
 .rodata        0x0000000000003094       0x20 msc_bot.o
 .rodata        0x00000000000030b4       0x3e msc_scsi.o
 *fill*         0x00000000000030f2        0x2 00
 .rodata        0x00000000000030f4        0xc sdcard.o
 .rodata        0x0000000000003100       0x1c ../usbstack.a(usbhw_lpc.o)
 .rodata        0x000000000000311c       0x38 ../usbstack.a(usbcontrol.o)
 .rodata        0x0000000000003154       0x28 ../usbstack.a(usbstdreq.o)
 *(.rodata*)
 .rodata.str1.4
                0x000000000000317c        0x7 printf.o
                                          0x8 (size before relaxing)
 *fill*         0x0000000000003183        0x1 00
 .rodata.str1.4
                0x0000000000003184       0x64 main_msc.o
 .rodata.str1.4
                0x00000000000031e8      0x183 msc_bot.o
                                        0x184 (size before relaxing)
 *fill*         0x000000000000336b        0x1 00
 .rodata.str1.4
                0x000000000000336c      0x132 msc_scsi.o
                                        0x134 (size before relaxing)
 *fill*         0x000000000000349e        0x2 00
 .rodata.str1.4
                0x00000000000034a0       0x1d blockdev_sd.o
                                         0x20 (size before relaxing)
 *fill*         0x00000000000034bd        0x3 00
 .rodata.str1.4
                0x00000000000034c0      0x1e0 sdcard.o
                                        0x208 (size before relaxing)
 .rodata.str1.4
                0x00000000000036a0       0x1c lpc2000_spi.o
 .rodata.str1.4
                0x00000000000036bc       0x7c ../usbstack.a(usbhw_lpc.o)
                                         0xa4 (size before relaxing)
 .rodata.str1.4
                0x0000000000003738       0x9a ../usbstack.a(usbcontrol.o)
                                         0xd0 (size before relaxing)
 *fill*         0x00000000000037d2        0x2 00
 .rodata.str1.4
                0x00000000000037d4       0xbb ../usbstack.a(usbstdreq.o)
                                         0xe4 (size before relaxing)
 *fill*         0x000000000000388f        0x1 00
 .rodata.str1.4
                0x0000000000003890        0x4 ../usbstack.a(usbinit.o)
 *(.glue_7)
 .glue_7        0x0000000000003894        0x0 crt.o
 .glue_7        0x0000000000003894        0x0 halsys.o
 .glue_7        0x0000000000003894        0x0 printf.o
 .glue_7        0x0000000000003894        0x0 console.o
 .glue_7        0x0000000000003894        0x0 main_msc.o
 .glue_7        0x0000000000003894        0x0 msc_bot.o
 .glue_7        0x0000000000003894        0x0 msc_scsi.o
 .glue_7        0x0000000000003894        0x0 blockdev_sd.o
 .glue_7        0x0000000000003894        0x0 sdcard.o
 .glue_7        0x0000000000003894        0x0 lpc2000_spi.o
 .glue_7        0x0000000000003894        0x0 ../usbstack.a(usbhw_lpc.o)
 .glue_7        0x0000000000003894        0x0 ../usbstack.a(usbcontrol.o)
 .glue_7        0x0000000000003894        0x0 ../usbstack.a(usbstdreq.o)
 .glue_7        0x0000000000003894        0x0 ../usbstack.a(usbinit.o)
 .glue_7        0x0000000000003894        0x0 /opt/cross/lib/gcc/arm-elf/4.2.1/libgcc.a(_udivsi3.o)
 .glue_7        0x0000000000003894        0x0 /opt/cross/lib/gcc/arm-elf/4.2.1/libgcc.a(_divsi3.o)
 .glue_7        0x0000000000003894        0x0 /opt/cross/lib/gcc/arm-elf/4.2.1/libgcc.a(_umodsi3.o)
 .glue_7        0x0000000000003894        0x0 /opt/cross/lib/gcc/arm-elf/4.2.1/libgcc.a(_dvmd_tls.o)
 .glue_7        0x0000000000003894        0x0 /opt/cross/lib/gcc/arm-elf/4.2.1/../../../../arm-elf/lib/libc.a(lib_a-memcpy.o)
 *(.glue_7t)
 .glue_7t       0x0000000000003894        0x0 crt.o
 .glue_7t       0x0000000000003894        0x0 halsys.o
 .glue_7t       0x0000000000003894        0x0 printf.o
 .glue_7t       0x0000000000003894        0x0 console.o
 .glue_7t       0x0000000000003894        0x0 main_msc.o
 .glue_7t       0x0000000000003894        0x0 msc_bot.o
 .glue_7t       0x0000000000003894        0x0 msc_scsi.o
 .glue_7t       0x0000000000003894        0x0 blockdev_sd.o
 .glue_7t       0x0000000000003894        0x0 sdcard.o
 .glue_7t       0x0000000000003894        0x0 lpc2000_spi.o
 .glue_7t       0x0000000000003894        0x0 ../usbstack.a(usbhw_lpc.o)
 .glue_7t       0x0000000000003894        0x0 ../usbstack.a(usbcontrol.o)
 .glue_7t       0x0000000000003894        0x0 ../usbstack.a(usbstdreq.o)
 .glue_7t       0x0000000000003894        0x0 ../usbstack.a(usbinit.o)
 .glue_7t       0x0000000000003894        0x0 /opt/cross/lib/gcc/arm-elf/4.2.1/libgcc.a(_udivsi3.o)
 .glue_7t       0x0000000000003894        0x0 /opt/cross/lib/gcc/arm-elf/4.2.1/libgcc.a(_divsi3.o)
 .glue_7t       0x0000000000003894        0x0 /opt/cross/lib/gcc/arm-elf/4.2.1/libgcc.a(_umodsi3.o)
 .glue_7t       0x0000000000003894        0x0 /opt/cross/lib/gcc/arm-elf/4.2.1/libgcc.a(_dvmd_tls.o)
 .glue_7t       0x0000000000003894        0x0 /opt/cross/lib/gcc/arm-elf/4.2.1/../../../../arm-elf/lib/libc.a(lib_a-memcpy.o)
                0x0000000000003894                _etext = .

.vfp11_veneer   0x0000000040000120        0x0
 .vfp11_veneer  0x0000000040000120        0x0 crt.o
 .vfp11_veneer  0x0000000040000120        0x0 halsys.o
 .vfp11_veneer  0x0000000040000120        0x0 printf.o
 .vfp11_veneer  0x0000000040000120        0x0 console.o
 .vfp11_veneer  0x0000000040000120        0x0 main_msc.o
 .vfp11_veneer  0x0000000040000120        0x0 msc_bot.o
 .vfp11_veneer  0x0000000040000120        0x0 msc_scsi.o
 .vfp11_veneer  0x0000000040000120        0x0 blockdev_sd.o
 .vfp11_veneer  0x0000000040000120        0x0 sdcard.o
 .vfp11_veneer  0x0000000040000120        0x0 lpc2000_spi.o
 .vfp11_veneer  0x0000000040000120        0x0 ../usbstack.a(usbhw_lpc.o)
 .vfp11_veneer  0x0000000040000120        0x0 ../usbstack.a(usbcontrol.o)
 .vfp11_veneer  0x0000000040000120        0x0 ../usbstack.a(usbstdreq.o)
 .vfp11_veneer  0x0000000040000120        0x0 ../usbstack.a(usbinit.o)
 .vfp11_veneer  0x0000000040000120        0x0 /opt/cross/lib/gcc/arm-elf/4.2.1/libgcc.a(_udivsi3.o)
 .vfp11_veneer  0x0000000040000120        0x0 /opt/cross/lib/gcc/arm-elf/4.2.1/libgcc.a(_divsi3.o)
 .vfp11_veneer  0x0000000040000120        0x0 /opt/cross/lib/gcc/arm-elf/4.2.1/libgcc.a(_umodsi3.o)
 .vfp11_veneer  0x0000000040000120        0x0 /opt/cross/lib/gcc/arm-elf/4.2.1/libgcc.a(_dvmd_tls.o)
 .vfp11_veneer  0x0000000040000120        0x0 /opt/cross/lib/gcc/arm-elf/4.2.1/../../../../arm-elf/lib/libc.a(lib_a-memcpy.o)

.v4_bx          0x0000000040000120        0x0
 .v4_bx         0x0000000040000120        0x0 crt.o
 .v4_bx         0x0000000040000120        0x0 halsys.o
 .v4_bx         0x0000000040000120        0x0 printf.o
 .v4_bx         0x0000000040000120        0x0 console.o
 .v4_bx         0x0000000040000120        0x0 main_msc.o
 .v4_bx         0x0000000040000120        0x0 msc_bot.o
 .v4_bx         0x0000000040000120        0x0 msc_scsi.o
 .v4_bx         0x0000000040000120        0x0 blockdev_sd.o
 .v4_bx         0x0000000040000120        0x0 sdcard.o
 .v4_bx         0x0000000040000120        0x0 lpc2000_spi.o
 .v4_bx         0x0000000040000120        0x0 ../usbstack.a(usbhw_lpc.o)
 .v4_bx         0x0000000040000120        0x0 ../usbstack.a(usbcontrol.o)
 .v4_bx         0x0000000040000120        0x0 ../usbstack.a(usbstdreq.o)
 .v4_bx         0x0000000040000120        0x0 ../usbstack.a(usbinit.o)
 .v4_bx         0x0000000040000120        0x0 /opt/cross/lib/gcc/arm-elf/4.2.1/libgcc.a(_udivsi3.o)
 .v4_bx         0x0000000040000120        0x0 /opt/cross/lib/gcc/arm-elf/4.2.1/libgcc.a(_divsi3.o)
 .v4_bx         0x0000000040000120        0x0 /opt/cross/lib/gcc/arm-elf/4.2.1/libgcc.a(_umodsi3.o)
 .v4_bx         0x0000000040000120        0x0 /opt/cross/lib/gcc/arm-elf/4.2.1/libgcc.a(_dvmd_tls.o)
 .v4_bx         0x0000000040000120        0x0 /opt/cross/lib/gcc/arm-elf/4.2.1/../../../../arm-elf/lib/libc.a(lib_a-memcpy.o)

.usbdma         0x000000007fd00000        0x0
 *(.usbdma)
                0x000000007fd00000                . = ALIGN (0x4)

.data           0x0000000040000200        0x0 load address 0x0000000000003894
                0x0000000040000200                _data = .
 *(.data)
 .data          0x0000000040000200        0x0 crt.o
 .data          0x0000000040000200        0x0 halsys.o
 .data          0x0000000040000200        0x0 printf.o
 .data          0x0000000040000200        0x0 console.o
 .data          0x0000000040000200        0x0 main_msc.o
 .data          0x0000000040000200        0x0 msc_bot.o
 .data          0x0000000040000200        0x0 msc_scsi.o
 .data          0x0000000040000200        0x0 blockdev_sd.o
 .data          0x0000000040000200        0x0 sdcard.o
 .data          0x0000000040000200        0x0 lpc2000_spi.o
 .data          0x0000000040000200        0x0 ../usbstack.a(usbhw_lpc.o)
 .data          0x0000000040000200        0x0 ../usbstack.a(usbcontrol.o)
 .data          0x0000000040000200        0x0 ../usbstack.a(usbstdreq.o)
 .data          0x0000000040000200        0x0 ../usbstack.a(usbinit.o)
 .data          0x0000000040000200        0x0 /opt/cross/lib/gcc/arm-elf/4.2.1/libgcc.a(_udivsi3.o)
 .data          0x0000000040000200        0x0 /opt/cross/lib/gcc/arm-elf/4.2.1/libgcc.a(_divsi3.o)
 .data          0x0000000040000200        0x0 /opt/cross/lib/gcc/arm-elf/4.2.1/libgcc.a(_umodsi3.o)
 .data          0x0000000040000200        0x0 /opt/cross/lib/gcc/arm-elf/4.2.1/libgcc.a(_dvmd_tls.o)
 .data          0x0000000040000200        0x0 /opt/cross/lib/gcc/arm-elf/4.2.1/../../../../arm-elf/lib/libc.a(lib_a-memcpy.o)
                0x0000000040000200                _edata = .

.bss            0x0000000040000200      0x2dc
                0x0000000040000200                _bss_start = .
 *(.bss)
 .bss           0x0000000040000200        0x0 crt.o
 .bss           0x0000000040000200        0x0 halsys.o
 .bss           0x0000000040000200        0x0 printf.o
 .bss           0x0000000040000200        0x0 console.o
 .bss           0x0000000040000200        0x4 main_msc.o
 .bss           0x0000000040000204       0x40 msc_bot.o
 .bss           0x0000000040000244      0x204 msc_scsi.o
 .bss           0x0000000040000448        0x0 blockdev_sd.o
 .bss           0x0000000040000448        0x4 sdcard.o
 .bss           0x000000004000044c        0x0 lpc2000_spi.o
 .bss           0x000000004000044c       0x48 ../usbstack.a(usbhw_lpc.o)
 .bss           0x0000000040000494       0x34 ../usbstack.a(usbcontrol.o)
 .bss           0x00000000400004c8        0xc ../usbstack.a(usbstdreq.o)
 .bss           0x00000000400004d4        0x8 ../usbstack.a(usbinit.o)
 .bss           0x00000000400004dc        0x0 /opt/cross/lib/gcc/arm-elf/4.2.1/libgcc.a(_udivsi3.o)
 .bss           0x00000000400004dc        0x0 /opt/cross/lib/gcc/arm-elf/4.2.1/libgcc.a(_divsi3.o)
 .bss           0x00000000400004dc        0x0 /opt/cross/lib/gcc/arm-elf/4.2.1/libgcc.a(_umodsi3.o)
 .bss           0x00000000400004dc        0x0 /opt/cross/lib/gcc/arm-elf/4.2.1/libgcc.a(_dvmd_tls.o)
 .bss           0x00000000400004dc        0x0 /opt/cross/lib/gcc/arm-elf/4.2.1/../../../../arm-elf/lib/libc.a(lib_a-memcpy.o)
                0x00000000400004dc                . = ALIGN (0x4)
                0x00000000400004dc                _bss_end = .
                0x00000000400004dc                _end = .
OUTPUT(msc.elf elf32-littlearm)

.ARM.attributes
                0x0000000000000000       0x10
 .ARM.attributes
                0x0000000000000000       0x10 crt.o
 .ARM.attributes
                0x0000000000000010       0x10 halsys.o
 .ARM.attributes
                0x0000000000000020       0x10 printf.o
 .ARM.attributes
                0x0000000000000030       0x10 console.o
 .ARM.attributes
                0x0000000000000040       0x10 main_msc.o
 .ARM.attributes
                0x0000000000000050       0x10 msc_bot.o
 .ARM.attributes
                0x0000000000000060       0x10 msc_scsi.o
 .ARM.attributes
                0x0000000000000070       0x10 blockdev_sd.o
 .ARM.attributes
                0x0000000000000080       0x10 sdcard.o
 .ARM.attributes
                0x0000000000000090       0x10 lpc2000_spi.o
 .ARM.attributes
                0x00000000000000a0       0x10 ../usbstack.a(usbhw_lpc.o)
 .ARM.attributes
                0x00000000000000b0       0x10 ../usbstack.a(usbcontrol.o)
 .ARM.attributes
                0x00000000000000c0       0x10 ../usbstack.a(usbstdreq.o)
 .ARM.attributes
                0x00000000000000d0       0x10 ../usbstack.a(usbinit.o)
 .ARM.attributes
                0x00000000000000e0       0x10 /opt/cross/lib/gcc/arm-elf/4.2.1/libgcc.a(_udivsi3.o)
 .ARM.attributes
                0x00000000000000f0       0x10 /opt/cross/lib/gcc/arm-elf/4.2.1/libgcc.a(_divsi3.o)
 .ARM.attributes
                0x0000000000000100       0x10 /opt/cross/lib/gcc/arm-elf/4.2.1/libgcc.a(_umodsi3.o)
 .ARM.attributes
                0x0000000000000110       0x10 /opt/cross/lib/gcc/arm-elf/4.2.1/libgcc.a(_dvmd_tls.o)
 .ARM.attributes
                0x0000000000000120       0x10 /opt/cross/lib/gcc/arm-elf/4.2.1/../../../../arm-elf/lib/libc.a(lib_a-memcpy.o)

.debug_abbrev   0x0000000000000000     0x120b
 .debug_abbrev  0x0000000000000000       0xc9 halsys.o
 .debug_abbrev  0x00000000000000c9      0x158 printf.o
 .debug_abbrev  0x0000000000000221       0xb8 console.o
 .debug_abbrev  0x00000000000002d9       0xd7 main_msc.o
 .debug_abbrev  0x00000000000003b0      0x1ed msc_bot.o
 .debug_abbrev  0x000000000000059d      0x10b msc_scsi.o
 .debug_abbrev  0x00000000000006a8      0x111 blockdev_sd.o
 .debug_abbrev  0x00000000000007b9      0x1cf sdcard.o
 .debug_abbrev  0x0000000000000988       0xbd lpc2000_spi.o
 .debug_abbrev  0x0000000000000a45      0x295 ../usbstack.a(usbhw_lpc.o)
 .debug_abbrev  0x0000000000000cda      0x152 ../usbstack.a(usbcontrol.o)
 .debug_abbrev  0x0000000000000e2c      0x246 ../usbstack.a(usbstdreq.o)
 .debug_abbrev  0x0000000000001072       0xa9 ../usbstack.a(usbinit.o)
 .debug_abbrev  0x000000000000111b       0x14 /opt/cross/lib/gcc/arm-elf/4.2.1/libgcc.a(_udivsi3.o)
 .debug_abbrev  0x000000000000112f       0x14 /opt/cross/lib/gcc/arm-elf/4.2.1/libgcc.a(_divsi3.o)
 .debug_abbrev  0x0000000000001143       0x14 /opt/cross/lib/gcc/arm-elf/4.2.1/libgcc.a(_umodsi3.o)
 .debug_abbrev  0x0000000000001157       0x14 /opt/cross/lib/gcc/arm-elf/4.2.1/libgcc.a(_dvmd_tls.o)
 .debug_abbrev  0x000000000000116b       0xa0 /opt/cross/lib/gcc/arm-elf/4.2.1/../../../../arm-elf/lib/libc.a(lib_a-memcpy.o)

.debug_info     0x0000000000000000     0x2c47
 .debug_info    0x0000000000000000      0x174 halsys.o
 .debug_info    0x0000000000000174      0x352 printf.o
 .debug_info    0x00000000000004c6       0xd2 console.o
 .debug_info    0x0000000000000598      0x181 main_msc.o
 .debug_info    0x0000000000000719      0x40a msc_bot.o
 .debug_info    0x0000000000000b23      0x2ff msc_scsi.o
 .debug_info    0x0000000000000e22      0x229 blockdev_sd.o
 .debug_info    0x000000000000104b      0x519 sdcard.o
 .debug_info    0x0000000000001564      0x12c lpc2000_spi.o
 .debug_info    0x0000000000001690      0x8d2 ../usbstack.a(usbhw_lpc.o)
 .debug_info    0x0000000000001f62      0x33b ../usbstack.a(usbcontrol.o)
 .debug_info    0x000000000000229d      0x4ba ../usbstack.a(usbstdreq.o)
 .debug_info    0x0000000000002757       0xba ../usbstack.a(usbinit.o)
 .debug_info    0x0000000000002811       0xbe /opt/cross/lib/gcc/arm-elf/4.2.1/libgcc.a(_udivsi3.o)
 .debug_info    0x00000000000028cf       0xbe /opt/cross/lib/gcc/arm-elf/4.2.1/libgcc.a(_divsi3.o)
 .debug_info    0x000000000000298d       0xbe /opt/cross/lib/gcc/arm-elf/4.2.1/libgcc.a(_umodsi3.o)
 .debug_info    0x0000000000002a4b       0xbe /opt/cross/lib/gcc/arm-elf/4.2.1/libgcc.a(_dvmd_tls.o)
 .debug_info    0x0000000000002b09      0x13e /opt/cross/lib/gcc/arm-elf/4.2.1/../../../../arm-elf/lib/libc.a(lib_a-memcpy.o)

.debug_line     0x0000000000000000      0xe58
 .debug_line    0x0000000000000000       0xa0 halsys.o
 .debug_line    0x00000000000000a0      0x100 printf.o
 .debug_line    0x00000000000001a0       0x61 console.o
 .debug_line    0x0000000000000201       0x77 main_msc.o
 .debug_line    0x0000000000000278      0x108 msc_bot.o
 .debug_line    0x0000000000000380       0xe3 msc_scsi.o
 .debug_line    0x0000000000000463       0x86 blockdev_sd.o
 .debug_line    0x00000000000004e9      0x10b sdcard.o
 .debug_line    0x00000000000005f4       0x8f lpc2000_spi.o
 .debug_line    0x0000000000000683      0x231 ../usbstack.a(usbhw_lpc.o)
 .debug_line    0x00000000000008b4       0xd2 ../usbstack.a(usbcontrol.o)
 .debug_line    0x0000000000000986      0x109 ../usbstack.a(usbstdreq.o)
 .debug_line    0x0000000000000a8f       0x57 ../usbstack.a(usbinit.o)
 .debug_line    0x0000000000000ae6       0xb0 /opt/cross/lib/gcc/arm-elf/4.2.1/libgcc.a(_udivsi3.o)
 .debug_line    0x0000000000000b96       0xbc /opt/cross/lib/gcc/arm-elf/4.2.1/libgcc.a(_divsi3.o)
 .debug_line    0x0000000000000c52       0x99 /opt/cross/lib/gcc/arm-elf/4.2.1/libgcc.a(_umodsi3.o)
 .debug_line    0x0000000000000ceb       0x84 /opt/cross/lib/gcc/arm-elf/4.2.1/libgcc.a(_dvmd_tls.o)
 .debug_line    0x0000000000000d6f       0xe9 /opt/cross/lib/gcc/arm-elf/4.2.1/../../../../arm-elf/lib/libc.a(lib_a-memcpy.o)

.debug_frame    0x0000000000000000      0x944
 .debug_frame   0x0000000000000000       0xa0 halsys.o
 .debug_frame   0x00000000000000a0       0xd8 printf.o
 .debug_frame   0x0000000000000178       0x58 console.o
 .debug_frame   0x00000000000001d0       0x44 main_msc.o
 .debug_frame   0x0000000000000214       0xac msc_bot.o
 .debug_frame   0x00000000000002c0       0x64 msc_scsi.o
 .debug_frame   0x0000000000000324       0x78 blockdev_sd.o
 .debug_frame   0x000000000000039c      0x140 sdcard.o
 .debug_frame   0x00000000000004dc       0x78 lpc2000_spi.o
 .debug_frame   0x0000000000000554      0x20c ../usbstack.a(usbhw_lpc.o)
 .debug_frame   0x0000000000000760       0x98 ../usbstack.a(usbcontrol.o)
 .debug_frame   0x00000000000007f8       0x74 ../usbstack.a(usbstdreq.o)
 .debug_frame   0x000000000000086c       0x38 ../usbstack.a(usbinit.o)
 .debug_frame   0x00000000000008a4       0x28 /opt/cross/lib/gcc/arm-elf/4.2.1/libgcc.a(_udivsi3.o)
 .debug_frame   0x00000000000008cc       0x28 /opt/cross/lib/gcc/arm-elf/4.2.1/libgcc.a(_divsi3.o)
 .debug_frame   0x00000000000008f4       0x28 /opt/cross/lib/gcc/arm-elf/4.2.1/libgcc.a(_umodsi3.o)
 .debug_frame   0x000000000000091c       0x28 /opt/cross/lib/gcc/arm-elf/4.2.1/../../../../arm-elf/lib/libc.a(lib_a-memcpy.o)

.debug_loc      0x0000000000000000     0x218f
 .debug_loc     0x0000000000000000       0x8e halsys.o
 .debug_loc     0x000000000000008e      0x5e4 printf.o
 .debug_loc     0x0000000000000672       0x63 console.o
 .debug_loc     0x00000000000006d5       0xfb main_msc.o
 .debug_loc     0x00000000000007d0      0x282 msc_bot.o
 .debug_loc     0x0000000000000a52      0x290 msc_scsi.o
 .debug_loc     0x0000000000000ce2      0x1de blockdev_sd.o
 .debug_loc     0x0000000000000ec0      0x4e6 sdcard.o
 .debug_loc     0x00000000000013a6       0xfc lpc2000_spi.o
 .debug_loc     0x00000000000014a2      0x5ed ../usbstack.a(usbhw_lpc.o)
 .debug_loc     0x0000000000001a8f      0x297 ../usbstack.a(usbcontrol.o)
 .debug_loc     0x0000000000001d26      0x333 ../usbstack.a(usbstdreq.o)
 .debug_loc     0x0000000000002059       0x32 ../usbstack.a(usbinit.o)
 .debug_loc     0x000000000000208b      0x104 /opt/cross/lib/gcc/arm-elf/4.2.1/../../../../arm-elf/lib/libc.a(lib_a-memcpy.o)

.debug_pubnames
                0x0000000000000000      0x5b8
 .debug_pubnames
                0x0000000000000000       0xac halsys.o
 .debug_pubnames
                0x00000000000000ac       0x29 printf.o
 .debug_pubnames
                0x00000000000000d5       0x43 console.o
 .debug_pubnames
                0x0000000000000118       0x1b main_msc.o
 .debug_pubnames
                0x0000000000000133       0x45 msc_bot.o
 .debug_pubnames
                0x0000000000000178       0x45 msc_scsi.o
 .debug_pubnames
                0x00000000000001bd       0x5a blockdev_sd.o
 .debug_pubnames
                0x0000000000000217       0x68 sdcard.o
 .debug_pubnames
                0x000000000000027f       0x4a lpc2000_spi.o
 .debug_pubnames
                0x00000000000002c9      0x1e8 ../usbstack.a(usbhw_lpc.o)
 .debug_pubnames
                0x00000000000004b1       0x4d ../usbstack.a(usbcontrol.o)
 .debug_pubnames
                0x00000000000004fe       0x7f ../usbstack.a(usbstdreq.o)
 .debug_pubnames
                0x000000000000057d       0x1e ../usbstack.a(usbinit.o)
 .debug_pubnames
                0x000000000000059b       0x1d /opt/cross/lib/gcc/arm-elf/4.2.1/../../../../arm-elf/lib/libc.a(lib_a-memcpy.o)

.debug_aranges  0x0000000000000000      0x240
 .debug_aranges
                0x0000000000000000       0x20 halsys.o
 .debug_aranges
                0x0000000000000020       0x20 printf.o
 .debug_aranges
                0x0000000000000040       0x20 console.o
 .debug_aranges
                0x0000000000000060       0x20 main_msc.o
 .debug_aranges
                0x0000000000000080       0x20 msc_bot.o
 .debug_aranges
                0x00000000000000a0       0x20 msc_scsi.o
 .debug_aranges
                0x00000000000000c0       0x20 blockdev_sd.o
 .debug_aranges
                0x00000000000000e0       0x20 sdcard.o
 .debug_aranges
                0x0000000000000100       0x20 lpc2000_spi.o
 .debug_aranges
                0x0000000000000120       0x20 ../usbstack.a(usbhw_lpc.o)
 .debug_aranges
                0x0000000000000140       0x20 ../usbstack.a(usbcontrol.o)
 .debug_aranges
                0x0000000000000160       0x20 ../usbstack.a(usbstdreq.o)
 .debug_aranges
                0x0000000000000180       0x20 ../usbstack.a(usbinit.o)
 .debug_aranges
                0x00000000000001a0       0x20 /opt/cross/lib/gcc/arm-elf/4.2.1/libgcc.a(_udivsi3.o)
 .debug_aranges
                0x00000000000001c0       0x20 /opt/cross/lib/gcc/arm-elf/4.2.1/libgcc.a(_divsi3.o)
 .debug_aranges
                0x00000000000001e0       0x20 /opt/cross/lib/gcc/arm-elf/4.2.1/libgcc.a(_umodsi3.o)
 .debug_aranges
                0x0000000000000200       0x20 /opt/cross/lib/gcc/arm-elf/4.2.1/libgcc.a(_dvmd_tls.o)
 .debug_aranges
                0x0000000000000220       0x20 /opt/cross/lib/gcc/arm-elf/4.2.1/../../../../arm-elf/lib/libc.a(lib_a-memcpy.o)

.debug_ranges   0x0000000000000000      0x1a8
 .debug_ranges  0x0000000000000000       0x30 halsys.o
 .debug_ranges  0x0000000000000030       0x30 msc_bot.o
 .debug_ranges  0x0000000000000060       0x48 sdcard.o
 .debug_ranges  0x00000000000000a8       0x80 ../usbstack.a(usbhw_lpc.o)
 .debug_ranges  0x0000000000000128       0x80 ../usbstack.a(usbstdreq.o)

.debug_str      0x0000000000000000      0xdfe
 .debug_str     0x0000000000000000       0xff halsys.o
                                        0x10c (size before relaxing)
 .debug_str     0x00000000000000ff       0x83 printf.o
                                         0xf3 (size before relaxing)
 .debug_str     0x0000000000000182       0x34 console.o
                                         0x88 (size before relaxing)
 .debug_str     0x00000000000001b6       0x86 main_msc.o
                                        0x111 (size before relaxing)
 .debug_str     0x000000000000023c      0x1a2 msc_bot.o
                                        0x274 (size before relaxing)
 .debug_str     0x00000000000003de       0xe7 msc_scsi.o
                                        0x1dc (size before relaxing)
 .debug_str     0x00000000000004c5       0xda blockdev_sd.o
                                        0x15c (size before relaxing)
 .debug_str     0x000000000000059f      0x140 sdcard.o
                                        0x1f2 (size before relaxing)
 .debug_str     0x00000000000006df       0x61 lpc2000_spi.o
                                         0xe7 (size before relaxing)
 .debug_str     0x0000000000000740      0x40b ../usbstack.a(usbhw_lpc.o)
                                        0x478 (size before relaxing)
 .debug_str     0x0000000000000b4b       0x94 ../usbstack.a(usbcontrol.o)
                                        0x1b6 (size before relaxing)
 .debug_str     0x0000000000000bdf      0x15a ../usbstack.a(usbstdreq.o)
                                        0x25d (size before relaxing)
 .debug_str     0x0000000000000d39       0x39 ../usbstack.a(usbinit.o)
                                         0xb2 (size before relaxing)
 .debug_str     0x0000000000000d72       0x8c /opt/cross/lib/gcc/arm-elf/4.2.1/../../../../arm-elf/lib/libc.a(lib_a-memcpy.o)
                                        0x121 (size before relaxing)

.comment        0x0000000000000000       0xfc
 .comment       0x0000000000000000       0x12 halsys.o
 .comment       0x0000000000000012       0x12 printf.o
 .comment       0x0000000000000024       0x12 console.o
 .comment       0x0000000000000036       0x12 main_msc.o
 .comment       0x0000000000000048       0x12 msc_bot.o
 .comment       0x000000000000005a       0x12 msc_scsi.o
 .comment       0x000000000000006c       0x12 blockdev_sd.o
 .comment       0x000000000000007e       0x12 sdcard.o
 .comment       0x0000000000000090       0x12 lpc2000_spi.o
 .comment       0x00000000000000a2       0x12 ../usbstack.a(usbhw_lpc.o)
 .comment       0x00000000000000b4       0x12 ../usbstack.a(usbcontrol.o)
 .comment       0x00000000000000c6       0x12 ../usbstack.a(usbstdreq.o)
 .comment       0x00000000000000d8       0x12 ../usbstack.a(usbinit.o)
 .comment       0x00000000000000ea       0x12 /opt/cross/lib/gcc/arm-elf/4.2.1/../../../../arm-elf/lib/libc.a(lib_a-memcpy.o)
